; ModuleID = 'source-C-CXX/60/514.cpp'
source_filename = "source-C-CXX/60/514.cpp"
target datalayout = "e-m:e-p270:32:32-p271:32:32-p272:64:64-i64:64-f80:128-n8:16:32:64-S128"
target triple = "x86_64-pc-linux-gnu"

%"class.std::ios_base::Init" = type { i8 }
%"class.std::basic_istream" = type { i32 (...)**, i64, %"class.std::basic_ios" }
%"class.std::basic_ios" = type { %"class.std::ios_base", %"class.std::basic_ostream"*, i8, i8, %"class.std::basic_streambuf"*, %"class.std::ctype"*, %"class.std::num_put"*, %"class.std::num_get"* }
%"class.std::ios_base" = type { i32 (...)**, i64, i64, i32, i32, i32, %"struct.std::ios_base::_Callback_list"*, %"struct.std::ios_base::_Words", [8 x %"struct.std::ios_base::_Words"], i32, %"struct.std::ios_base::_Words"*, %"class.std::locale" }
%"struct.std::ios_base::_Callback_list" = type { %"struct.std::ios_base::_Callback_list"*, void (i32, %"class.std::ios_base"*, i32)*, i32, i32 }
%"struct.std::ios_base::_Words" = type { i8*, i64 }
%"class.std::locale" = type { %"class.std::locale::_Impl"* }
%"class.std::locale::_Impl" = type { i32, %"class.std::locale::facet"**, i64, %"class.std::locale::facet"**, i8** }
%"class.std::locale::facet" = type <{ i32 (...)**, i32, [4 x i8] }>
%"class.std::basic_ostream" = type { i32 (...)**, %"class.std::basic_ios" }
%"class.std::basic_streambuf" = type { i32 (...)**, i8*, i8*, i8*, i8*, i8*, i8*, %"class.std::locale" }
%"class.std::ctype" = type <{ %"class.std::locale::facet.base", [4 x i8], %struct.__locale_struct*, i8, [7 x i8], i32*, i32*, i16*, i8, [256 x i8], [256 x i8], i8, [6 x i8] }>
%"class.std::locale::facet.base" = type <{ i32 (...)**, i32 }>
%struct.__locale_struct = type { [13 x %struct.__locale_data*], i16*, i32*, i32*, [13 x i8*] }
%struct.__locale_data = type opaque
%"class.std::num_put" = type { %"class.std::locale::facet.base", [4 x i8] }
%"class.std::num_get" = type { %"class.std::locale::facet.base", [4 x i8] }

@_ZStL8__ioinit = internal global %"class.std::ios_base::Init" zeroinitializer, align 1
@__dso_handle = external hidden global i8
@_ZSt3cin = external global %"class.std::basic_istream", align 8
@_ZSt4cout = external global %"class.std::basic_ostream", align 8
@llvm.global_ctors = appending global [1 x { i32, void ()*, i8* }] [{ i32, void ()*, i8* } { i32 65535, void ()* @_GLOBAL__sub_I_514.cpp, i8* null }]

declare void @_ZNSt8ios_base4InitC1Ev(%"class.std::ios_base::Init"* nonnull align 1 dereferenceable(1)) unnamed_addr #0

; Function Attrs: nounwind
declare void @_ZNSt8ios_base4InitD1Ev(%"class.std::ios_base::Init"* nonnull align 1 dereferenceable(1)) unnamed_addr #1

; Function Attrs: nofree nounwind
declare i32 @__cxa_atexit(void (i8*)*, i8*, i8*) local_unnamed_addr #2

; Function Attrs: mustprogress norecurse sspstrong uwtable
define dso_local i32 @main() local_unnamed_addr #3 {
  %1 = alloca i32, align 4
  %2 = alloca [20 x i32], align 16
  %3 = alloca i32, align 4
  %4 = bitcast i32* %1 to i8*
  call void @llvm.lifetime.start.p0i8(i64 4, i8* nonnull %4) #7
  %5 = call nonnull align 8 dereferenceable(16) %"class.std::basic_istream"* @_ZNSirsERi(%"class.std::basic_istream"* nonnull align 8 dereferenceable(16) @_ZSt3cin, i32* nonnull align 4 dereferenceable(4) %1)
  %6 = bitcast [20 x i32]* %2 to i8*
  call void @llvm.lifetime.start.p0i8(i64 80, i8* nonnull %6) #7
  %7 = bitcast [20 x i32]* %2 to <4 x i32>*
  store <4 x i32> <i32 1, i32 1, i32 2, i32 3>, <4 x i32>* %7, align 16, !tbaa !5
  %8 = getelementptr inbounds [20 x i32], [20 x i32]* %2, i64 0, i64 4
  %9 = bitcast i32* %8 to <4 x i32>*
  store <4 x i32> <i32 5, i32 8, i32 13, i32 21>, <4 x i32>* %9, align 16, !tbaa !5
  %10 = getelementptr inbounds [20 x i32], [20 x i32]* %2, i64 0, i64 8
  %11 = bitcast i32* %10 to <4 x i32>*
  store <4 x i32> <i32 34, i32 55, i32 89, i32 144>, <4 x i32>* %11, align 16, !tbaa !5
  %12 = getelementptr inbounds [20 x i32], [20 x i32]* %2, i64 0, i64 12
  %13 = bitcast i32* %12 to <4 x i32>*
  store <4 x i32> <i32 233, i32 377, i32 610, i32 987>, <4 x i32>* %13, align 16, !tbaa !5
  %14 = getelementptr inbounds [20 x i32], [20 x i32]* %2, i64 0, i64 16
  %15 = bitcast i32* %14 to <4 x i32>*
  store <4 x i32> <i32 1597, i32 2584, i32 4181, i32 6765>, <4 x i32>* %15, align 16, !tbaa !5
  %16 = bitcast i32* %3 to i8*
  call void @llvm.lifetime.start.p0i8(i64 4, i8* nonnull %16) #7
  %17 = load i32, i32* %1, align 4, !tbaa !5
  %18 = icmp sgt i32 %17, 0
  br i1 %18, label %19, label %63

19:                                               ; preds = %0, %59
  %20 = phi i32 [ %60, %59 ], [ 0, %0 ]
  %21 = call nonnull align 8 dereferenceable(16) %"class.std::basic_istream"* @_ZNSirsERi(%"class.std::basic_istream"* nonnull align 8 dereferenceable(16) @_ZSt3cin, i32* nonnull align 4 dereferenceable(4) %3)
  %22 = load i32, i32* %3, align 4, !tbaa !5
  %23 = add i32 %22, -1
  %24 = icmp ult i32 %23, 20
  br i1 %24, label %25, label %59

25:                                               ; preds = %19
  %26 = zext i32 %23 to i64
  %27 = getelementptr inbounds [20 x i32], [20 x i32]* %2, i64 0, i64 %26
  %28 = load i32, i32* %27, align 4, !tbaa !5
  %29 = call nonnull align 8 dereferenceable(8) %"class.std::basic_ostream"* @_ZNSolsEi(%"class.std::basic_ostream"* nonnull align 8 dereferenceable(8) @_ZSt4cout, i32 %28)
  %30 = bitcast %"class.std::basic_ostream"* %29 to i8**
  %31 = load i8*, i8** %30, align 8, !tbaa !9
  %32 = getelementptr i8, i8* %31, i64 -24
  %33 = bitcast i8* %32 to i64*
  %34 = load i64, i64* %33, align 8
  %35 = bitcast %"class.std::basic_ostream"* %29 to i8*
  %36 = add nsw i64 %34, 240
  %37 = getelementptr inbounds i8, i8* %35, i64 %36
  %38 = bitcast i8* %37 to %"class.std::ctype"**
  %39 = load %"class.std::ctype"*, %"class.std::ctype"** %38, align 8, !tbaa !11
  %40 = icmp eq %"class.std::ctype"* %39, null
  br i1 %40, label %41, label %42

41:                                               ; preds = %25
  call void @_ZSt16__throw_bad_castv() #8
  unreachable

42:                                               ; preds = %25
  %43 = getelementptr inbounds %"class.std::ctype", %"class.std::ctype"* %39, i64 0, i32 8
  %44 = load i8, i8* %43, align 8, !tbaa !15
  %45 = icmp eq i8 %44, 0
  br i1 %45, label %49, label %46

46:                                               ; preds = %42
  %47 = getelementptr inbounds %"class.std::ctype", %"class.std::ctype"* %39, i64 0, i32 9, i64 10
  %48 = load i8, i8* %47, align 1, !tbaa !17
  br label %55

49:                                               ; preds = %42
  call void @_ZNKSt5ctypeIcE13_M_widen_initEv(%"class.std::ctype"* nonnull align 8 dereferenceable(570) %39)
  %50 = bitcast %"class.std::ctype"* %39 to i8 (%"class.std::ctype"*, i8)***
  %51 = load i8 (%"class.std::ctype"*, i8)**, i8 (%"class.std::ctype"*, i8)*** %50, align 8, !tbaa !9
  %52 = getelementptr inbounds i8 (%"class.std::ctype"*, i8)*, i8 (%"class.std::ctype"*, i8)** %51, i64 6
  %53 = load i8 (%"class.std::ctype"*, i8)*, i8 (%"class.std::ctype"*, i8)** %52, align 8
  %54 = call signext i8 %53(%"class.std::ctype"* nonnull align 8 dereferenceable(570) %39, i8 signext 10)
  br label %55

55:                                               ; preds = %46, %49
  %56 = phi i8 [ %48, %46 ], [ %54, %49 ]
  %57 = call nonnull align 8 dereferenceable(8) %"class.std::basic_ostream"* @_ZNSo3putEc(%"class.std::basic_ostream"* nonnull align 8 dereferenceable(8) %29, i8 signext %56)
  %58 = call nonnull align 8 dereferenceable(8) %"class.std::basic_ostream"* @_ZNSo5flushEv(%"class.std::basic_ostream"* nonnull align 8 dereferenceable(8) %57)
  br label %59

59:                                               ; preds = %19, %55
  %60 = add nuw nsw i32 %20, 1
  %61 = load i32, i32* %1, align 4, !tbaa !5
  %62 = icmp slt i32 %60, %61
  br i1 %62, label %19, label %63, !llvm.loop !18

63:                                               ; preds = %59, %0
  call void @llvm.lifetime.end.p0i8(i64 4, i8* nonnull %16) #7
  call void @llvm.lifetime.end.p0i8(i64 80, i8* nonnull %6) #7
  call void @llvm.lifetime.end.p0i8(i64 4, i8* nonnull %4) #7
  ret i32 0
}

; Function Attrs: argmemonly mustprogress nofree nosync nounwind willreturn
declare void @llvm.lifetime.start.p0i8(i64 immarg, i8* nocapture) #4

declare nonnull align 8 dereferenceable(16) %"class.std::basic_istream"* @_ZNSirsERi(%"class.std::basic_istream"* nonnull align 8 dereferenceable(16), i32* nonnull align 4 dereferenceable(4)) local_unnamed_addr #0

declare nonnull align 8 dereferenceable(8) %"class.std::basic_ostream"* @_ZNSolsEi(%"class.std::basic_ostream"* nonnull align 8 dereferenceable(8), i32) local_unnamed_addr #0

; Function Attrs: argmemonly mustprogress nofree nosync nounwind willreturn
declare void @llvm.lifetime.end.p0i8(i64 immarg, i8* nocapture) #4

declare nonnull align 8 dereferenceable(8) %"class.std::basic_ostream"* @_ZNSo3putEc(%"class.std::basic_ostream"* nonnull align 8 dereferenceable(8), i8 signext) local_unnamed_addr #0

declare nonnull align 8 dereferenceable(8) %"class.std::basic_ostream"* @_ZNSo5flushEv(%"class.std::basic_ostream"* nonnull align 8 dereferenceable(8)) local_unnamed_addr #0

; Function Attrs: noreturn
declare void @_ZSt16__throw_bad_castv() local_unnamed_addr #5

declare void @_ZNKSt5ctypeIcE13_M_widen_initEv(%"class.std::ctype"* nonnull align 8 dereferenceable(570)) local_unnamed_addr #0

; Function Attrs: sspstrong uwtable
define internal void @_GLOBAL__sub_I_514.cpp() #6 section ".text.startup" {
  tail call void @_ZNSt8ios_base4InitC1Ev(%"class.std::ios_base::Init"* nonnull align 1 dereferenceable(1) @_ZStL8__ioinit)
  %1 = tail call i32 @__cxa_atexit(void (i8*)* bitcast (void (%"class.std::ios_base::Init"*)* @_ZNSt8ios_base4InitD1Ev to void (i8*)*), i8* getelementptr inbounds (%"class.std::ios_base::Init", %"class.std::ios_base::Init"* @_ZStL8__ioinit, i64 0, i32 0), i8* nonnull @__dso_handle) #7
  ret void
}


!llvm.module.flags = !{!0, !1, !2, !3}
!llvm.ident = !{!4}

!0 = !{i32 1, !"wchar_size", i32 4}
!1 = !{i32 7, !"PIC Level", i32 2}
!2 = !{i32 7, !"PIE Level", i32 2}
!3 = !{i32 7, !"uwtable", i32 1}
!4 = !{!"clang version 13.0.0"}
!5 = !{!6, !6, i64 0}
!6 = !{!"int", !7, i64 0}
!7 = !{!"omnipotent char", !8, i64 0}
!8 = !{!"Simple C++ TBAA"}
!9 = !{!10, !10, i64 0}
!10 = !{!"vtable pointer", !8, i64 0}
!11 = !{!12, !13, i64 240}
!12 = !{!"_ZTSSt9basic_iosIcSt11char_traitsIcEE", !13, i64 216, !7, i64 224, !14, i64 225, !13, i64 232, !13, i64 240, !13, i64 248, !13, i64 256}
!13 = !{!"any pointer", !7, i64 0}
!14 = !{!"bool", !7, i64 0}
!15 = !{!16, !7, i64 56}
!16 = !{!"_ZTSSt5ctypeIcE", !13, i64 16, !14, i64 24, !13, i64 32, !13, i64 40, !13, i64 48, !7, i64 56, !7, i64 57, !7, i64 313, !7, i64 569}
!17 = !{!7, !7, i64 0}
!18 = distinct !{!18, !19}
!19 = !{!"llvm.loop.mustprogress"}
